; Function Attrs: mustprogress sspstrong uwtable
define noundef i64 @_ZN3tbb6detail2r15arena28calculate_stealing_thresholdEv(ptr noundef nonnull readonly align 128 captures(none) dereferenceable(768) %0) local_unnamed_addr #1 align 2 {
  %2 = alloca %"struct.tbb::detail::r1::stack_anchor_type", align 1
  call void @llvm.lifetime.start.p0(i64 1, ptr nonnull %2) #13
  %3 = ptrtoint ptr %2 to i64
  %4 = getelementptr inbounds nuw i8, ptr %0, i64 280
  %5 = load ptr, ptr %4, align 8, !tbaa !3
  %6 = call noundef i64 @_ZN3tbb6detail2r117threading_control17worker_stack_sizeEv(ptr noundef nonnull align 8 dereferenceable(16) %5)
  %7 = lshr i64 %6, 1
  %8 = sub i64 %3, %7
  call void @llvm.lifetime.end.p0(i64 1, ptr nonnull %2) #13
  ret i64 %8
}